target datalayout = "e-m:e-p270:32:32-p271:32:32-p272:64:64-i64:64-i128:128-f80:128-n8:16:32:64-S128"
target triple = "x86_64-pc-linux-gnu"

%"class.std::mutex" = type { %"class.std::__mutex_base" }
%"class.std::__mutex_base" = type { %union.pthread_mutex_t }
%union.pthread_mutex_t = type { %struct.__pthread_mutex_s }
%struct.__pthread_mutex_s = type { i32, i32, i32, i32, i32, i16, i16, %struct.__pthread_internal_list }
%struct.__pthread_internal_list = type { ptr, ptr }
%"class.std::condition_variable" = type { %"class.std::__condvar" }
%"class.std::__condvar" = type { %union.pthread_cond_t }
%union.pthread_cond_t = type { %struct.__pthread_cond_s }
%struct.__pthread_cond_s = type { %union.__atomic_wide_counter, %union.__atomic_wide_counter, [2 x i32], [2 x i32], i32, i32, [2 x i32] }
%union.__atomic_wide_counter = type { i64 }
%"class.pbrt::ThreadPool" = type { %"class.std::vector", %"class.std::mutex", i8, i8, ptr, %"class.std::condition_variable" }
%"class.std::vector" = type { %"struct.std::_Vector_base" }
%"struct.std::_Vector_base" = type { %"struct.std::_Vector_base<std::thread, std::allocator<std::thread>>::_Vector_impl" }
%"struct.std::_Vector_base<std::thread, std::allocator<std::thread>>::_Vector_impl" = type { %"struct.std::_Vector_base<std::thread, std::allocator<std::thread>>::_Vector_impl_data" }
%"struct.std::_Vector_base<std::thread, std::allocator<std::thread>>::_Vector_impl_data" = type { ptr, ptr, ptr }
%"class.pbrt::ParallelJob" = type <{ ptr, i32, [4 x i8], ptr, ptr, i8, [7 x i8] }>

; Function Attrs: mustprogress nounwind uwtable
define dso_local void @_ZN4pbrt10ThreadPool17RemoveFromJobListEPNS_11ParallelJobE(ptr noundef nonnull align 8 dereferenceable(128) %0, ptr noundef %1) #5 align 2 {
  %3 = alloca ptr, align 8
  %4 = alloca ptr, align 8
  store ptr %0, ptr %3, align 8, !tbaa !52
  store ptr %1, ptr %4, align 8, !tbaa !79
  %5 = load ptr, ptr %3, align 8
  br label %6

6:                                                ; preds = %2
  br label %7

7:                                                ; preds = %6
  %8 = load ptr, ptr %4, align 8, !tbaa !79
  %9 = getelementptr inbounds nuw %"class.pbrt::ParallelJob", ptr %8, i32 0, i32 3
  %10 = load ptr, ptr %9, align 8, !tbaa !86
  %11 = icmp ne ptr %10, null
  br i1 %11, label %12, label %20

12:                                               ; preds = %7
  %13 = load ptr, ptr %4, align 8, !tbaa !79
  %14 = getelementptr inbounds nuw %"class.pbrt::ParallelJob", ptr %13, i32 0, i32 4
  %15 = load ptr, ptr %14, align 8, !tbaa !82
  %16 = load ptr, ptr %4, align 8, !tbaa !79
  %17 = getelementptr inbounds nuw %"class.pbrt::ParallelJob", ptr %16, i32 0, i32 3
  %18 = load ptr, ptr %17, align 8, !tbaa !86
  %19 = getelementptr inbounds nuw %"class.pbrt::ParallelJob", ptr %18, i32 0, i32 4
  store ptr %15, ptr %19, align 8, !tbaa !82
  br label %27

20:                                               ; preds = %7
  br label %21

21:                                               ; preds = %20
  br label %22

22:                                               ; preds = %21
  %23 = load ptr, ptr %4, align 8, !tbaa !79
  %24 = getelementptr inbounds nuw %"class.pbrt::ParallelJob", ptr %23, i32 0, i32 4
  %25 = load ptr, ptr %24, align 8, !tbaa !82
  %26 = getelementptr inbounds nuw %"class.pbrt::ThreadPool", ptr %5, i32 0, i32 4
  store ptr %25, ptr %26, align 8, !tbaa !63
  br label %27

27:                                               ; preds = %22, %12
  %28 = load ptr, ptr %4, align 8, !tbaa !79
  %29 = getelementptr inbounds nuw %"class.pbrt::ParallelJob", ptr %28, i32 0, i32 4
  %30 = load ptr, ptr %29, align 8, !tbaa !82
  %31 = icmp ne ptr %30, null
  br i1 %31, label %32, label %40

32:                                               ; preds = %27
  %33 = load ptr, ptr %4, align 8, !tbaa !79
  %34 = getelementptr inbounds nuw %"class.pbrt::ParallelJob", ptr %33, i32 0, i32 3
  %35 = load ptr, ptr %34, align 8, !tbaa !86
  %36 = load ptr, ptr %4, align 8, !tbaa !79
  %37 = getelementptr inbounds nuw %"class.pbrt::ParallelJob", ptr %36, i32 0, i32 4
  %38 = load ptr, ptr %37, align 8, !tbaa !82
  %39 = getelementptr inbounds nuw %"class.pbrt::ParallelJob", ptr %38, i32 0, i32 3
  store ptr %35, ptr %39, align 8, !tbaa !86
  br label %40

40:                                               ; preds = %32, %27
  %41 = load ptr, ptr %4, align 8, !tbaa !79
  %42 = getelementptr inbounds nuw %"class.pbrt::ParallelJob", ptr %41, i32 0, i32 5
  store i8 1, ptr %42, align 8, !tbaa !87
  ret void
}