; Function Attrs: mustprogress nofree norecurse nosync nounwind willreturn memory(write, argmem: readwrite, inaccessiblemem: none) uwtable
define dso_local void @_ZN4pbrt10ThreadPool17RemoveFromJobListEPNS_11ParallelJobE(ptr noundef nonnull writeonly align 8 captures(none) dereferenceable(128) %0, ptr noundef captures(none) initializes((32, 33)) %1) local_unnamed_addr #6 align 2 {
  %3 = getelementptr inbounds nuw i8, ptr %1, i64 16
  %4 = load ptr, ptr %3, align 8, !tbaa !86
  %.not = icmp eq ptr %4, null
  %5 = getelementptr inbounds nuw i8, ptr %1, i64 24
  %6 = load ptr, ptr %5, align 8, !tbaa !87
  br i1 %.not, label %9, label %7

7:                                                ; preds = %2
  %8 = getelementptr inbounds nuw i8, ptr %4, i64 24
  store ptr %6, ptr %8, align 8, !tbaa !87
  br label %11

9:                                                ; preds = %2
  %10 = getelementptr inbounds nuw i8, ptr %0, i64 72
  store ptr %6, ptr %10, align 8, !tbaa !45
  br label %11

11:                                               ; preds = %9, %7
  %.not10 = icmp eq ptr %6, null
  br i1 %.not10, label %14, label %12

12:                                               ; preds = %11
  %13 = getelementptr inbounds nuw i8, ptr %6, i64 16
  store ptr %4, ptr %13, align 8, !tbaa !86
  br label %14

14:                                               ; preds = %12, %11
  %15 = getelementptr inbounds nuw i8, ptr %1, i64 32
  store i8 1, ptr %15, align 8, !tbaa !88
  ret void
}